target datalayout = "e-m:e-p270:32:32-p271:32:32-p272:64:64-i64:64-i128:128-f80:128-n8:16:32:64-S128"
target triple = "x86_64-pc-linux-gnu"

%struct.Cnf_Man_t_ = type { ptr, ptr, ptr, i32, ptr, i32, [4 x ptr], ptr, i64, i64, i64 }
%struct.Cnf_Cut_t_ = type { i8, i8, i16, [2 x ptr], [0 x i32] }

; Function Attrs: inlinehint nounwind uwtable
define internal i32 @Abc_TruthWordNum(i32 noundef %0) #2 {
  %2 = alloca i32, align 4
  store i32 %0, ptr %2, align 4, !tbaa !8
  %3 = load i32, ptr %2, align 4, !tbaa !8
  %4 = icmp sle i32 %3, 5
  br i1 %4, label %5, label %6

5:                                                ; preds = %1
  br label %10

6:                                                ; preds = %1
  %7 = load i32, ptr %2, align 4, !tbaa !8
  %8 = sub nsw i32 %7, 5
  %9 = shl i32 1, %8
  br label %10

10:                                               ; preds = %6, %5
  %11 = phi i32 [ 1, %5 ], [ %9, %6 ]
  ret i32 %11
}

; Function Attrs: nounwind uwtable
define ptr @Cnf_CutAlloc(ptr noundef %0, i32 noundef %1) #0 {
  %3 = alloca ptr, align 8
  %4 = alloca i32, align 4
  %5 = alloca ptr, align 8
  %6 = alloca i32, align 4
  store ptr %0, ptr %3, align 8, !tbaa !3
  store i32 %1, ptr %4, align 4, !tbaa !8
  call void @llvm.lifetime.start.p0(i64 8, ptr %5) #7
  call void @llvm.lifetime.start.p0(i64 4, ptr %6) #7
  %7 = load i32, ptr %4, align 4, !tbaa !8
  %8 = sext i32 %7 to i64
  %9 = mul i64 4, %8
  %10 = add i64 24, %9
  %11 = load i32, ptr %4, align 4, !tbaa !8
  %12 = call i32 @Abc_TruthWordNum(i32 noundef %11)
  %13 = sext i32 %12 to i64
  %14 = mul i64 4, %13
  %15 = add i64 %10, %14
  %16 = trunc i64 %15 to i32
  store i32 %16, ptr %6, align 4, !tbaa !8
  %17 = load ptr, ptr %3, align 8, !tbaa !3
  %18 = getelementptr inbounds nuw %struct.Cnf_Man_t_, ptr %17, i32 0, i32 4
  %19 = load ptr, ptr %18, align 8, !tbaa !10
  %20 = load i32, ptr %6, align 4, !tbaa !8
  %21 = call ptr @Aig_MmFlexEntryFetch(ptr noundef %19, i32 noundef %20)
  store ptr %21, ptr %5, align 8, !tbaa !18
  %22 = load i32, ptr %4, align 4, !tbaa !8
  %23 = trunc i32 %22 to i8
  %24 = load ptr, ptr %5, align 8, !tbaa !18
  %25 = getelementptr inbounds nuw %struct.Cnf_Cut_t_, ptr %24, i32 0, i32 0
  store i8 %23, ptr %25, align 8, !tbaa !20
  %26 = load i32, ptr %4, align 4, !tbaa !8
  %27 = call i32 @Abc_TruthWordNum(i32 noundef %26)
  %28 = trunc i32 %27 to i16
  %29 = load ptr, ptr %5, align 8, !tbaa !18
  %30 = getelementptr inbounds nuw %struct.Cnf_Cut_t_, ptr %29, i32 0, i32 2
  store i16 %28, ptr %30, align 2, !tbaa !23
  %31 = load ptr, ptr %5, align 8, !tbaa !18
  %32 = getelementptr inbounds nuw %struct.Cnf_Cut_t_, ptr %31, i32 0, i32 3
  %33 = getelementptr inbounds [2 x ptr], ptr %32, i64 0, i64 1
  store ptr null, ptr %33, align 8, !tbaa !24
  %34 = load ptr, ptr %5, align 8, !tbaa !18
  %35 = getelementptr inbounds nuw %struct.Cnf_Cut_t_, ptr %34, i32 0, i32 3
  %36 = getelementptr inbounds [2 x ptr], ptr %35, i64 0, i64 0
  store ptr null, ptr %36, align 8, !tbaa !24
  %37 = load ptr, ptr %5, align 8, !tbaa !18
  call void @llvm.lifetime.end.p0(i64 4, ptr %6) #7
  call void @llvm.lifetime.end.p0(i64 8, ptr %5) #7
  ret ptr %37
}