; Function Attrs: nounwind uwtable
define noundef ptr @Cnf_CutAlloc(ptr noundef readonly captures(none) %0, i32 noundef %1) local_unnamed_addr #0 {
  %3 = icmp slt i32 %1, 6
  %4 = add nsw i32 %1, -5
  %5 = shl nuw i32 1, %4
  %6 = select i1 %3, i32 1, i32 %5
  %7 = add i32 %6, %1
  %8 = shl i32 %7, 2
  %9 = add i32 %8, 24
  %10 = getelementptr inbounds nuw i8, ptr %0, i64 32
  %11 = load ptr, ptr %10, align 8, !tbaa !3
  %12 = tail call ptr @Aig_MmFlexEntryFetch(ptr noundef %11, i32 noundef %9) #12
  %13 = trunc i32 %1 to i8
  store i8 %13, ptr %12, align 8, !tbaa !15
  %14 = trunc i32 %6 to i16
  %15 = getelementptr inbounds nuw i8, ptr %12, i64 2
  store i16 %14, ptr %15, align 2, !tbaa !18
  %16 = getelementptr inbounds nuw i8, ptr %12, i64 8
  tail call void @llvm.memset.p0.i64(ptr noundef nonnull align 8 dereferenceable(16) %16, i8 0, i64 16, i1 false)
  ret ptr %12
}